target datalayout = "e-m:e-p270:32:32-p271:32:32-p272:64:64-i64:64-i128:128-f80:128-n8:16:32:64-S128"
target triple = "x86_64-pc-linux-gnu"

@.str.45 = private unnamed_addr constant [2 x i8] c",\00", align 1

; Function Attrs: inlinehint nounwind willreturn memory(read) uwtable
define available_externally i32 @atoi(ptr noundef nonnull %0) #8 {
  %2 = alloca ptr, align 8
  store ptr %0, ptr %2, align 8
  %3 = load ptr, ptr %2, align 8
  %4 = call i64 @strtol(ptr noundef %3, ptr noundef null, i32 noundef 10) #10
  %5 = trunc i64 %4 to i32
  ret i32 %5
}

; Function Attrs: nounwind uwtable
define internal i32 @_parse_gpu_request(ptr noundef %0) #0 {
  %2 = alloca ptr, align 8
  %3 = alloca ptr, align 8
  %4 = alloca ptr, align 8
  %5 = alloca ptr, align 8
  %6 = alloca ptr, align 8
  %7 = alloca i32, align 4
  %8 = alloca i32, align 4
  store ptr %0, ptr %2, align 8
  call void @llvm.lifetime.start.p0(i64 8, ptr %3) #10
  store ptr null, ptr %3, align 8
  call void @llvm.lifetime.start.p0(i64 8, ptr %4) #10
  call void @llvm.lifetime.start.p0(i64 8, ptr %5) #10
  call void @llvm.lifetime.start.p0(i64 8, ptr %6) #10
  call void @llvm.lifetime.start.p0(i64 4, ptr %7) #10
  store i32 0, ptr %7, align 4
  %9 = load ptr, ptr %2, align 8
  %10 = call ptr @xstrdup(ptr noundef %9)
  store ptr %10, ptr %4, align 8
  %11 = load ptr, ptr %4, align 8
  %12 = call ptr @strtok_r(ptr noundef %11, ptr noundef @.str.45, ptr noundef %3) #10
  store ptr %12, ptr %5, align 8
  br label %13

13:                                               ; preds = %39, %1
  %14 = load ptr, ptr %5, align 8
  %15 = icmp ne ptr %14, null
  br i1 %15, label %16, label %41

16:                                               ; preds = %13
  call void @llvm.lifetime.start.p0(i64 4, ptr %8) #10
  store i32 0, ptr %8, align 4
  %17 = load ptr, ptr %5, align 8
  %18 = call ptr @xstrchr(ptr noundef %17, i32 noundef 58)
  store ptr %18, ptr %6, align 8
  %19 = load ptr, ptr %6, align 8
  %20 = icmp ne ptr %19, null
  br i1 %20, label %21, label %27

21:                                               ; preds = %16
  %22 = load ptr, ptr %6, align 8
  %23 = getelementptr inbounds i8, ptr %22, i64 1
  %24 = call i32 @atoi(ptr noundef %23) #14
  %25 = load i32, ptr %8, align 4
  %26 = add nsw i32 %25, %24
  store i32 %26, ptr %8, align 4
  br label %32

27:                                               ; preds = %16
  %28 = load ptr, ptr %5, align 8
  %29 = call i32 @atoi(ptr noundef %28) #14
  %30 = load i32, ptr %8, align 4
  %31 = add nsw i32 %30, %29
  store i32 %31, ptr %8, align 4
  br label %32

32:                                               ; preds = %27, %21
  %33 = load i32, ptr %8, align 4
  %34 = icmp sgt i32 %33, 0
  br i1 %34, label %35, label %39

35:                                               ; preds = %32
  %36 = load i32, ptr %8, align 4
  %37 = load i32, ptr %7, align 4
  %38 = add nsw i32 %37, %36
  store i32 %38, ptr %7, align 4
  br label %39

39:                                               ; preds = %35, %32
  %40 = call ptr @strtok_r(ptr noundef null, ptr noundef @.str.45, ptr noundef %3) #10
  store ptr %40, ptr %5, align 8
  call void @llvm.lifetime.end.p0(i64 4, ptr %8) #10
  br label %13, !llvm.loop !22

41:                                               ; preds = %13
  call void @slurm_xfree(ptr noundef %4)
  %42 = load i32, ptr %7, align 4
  call void @llvm.lifetime.end.p0(i64 4, ptr %7) #10
  call void @llvm.lifetime.end.p0(i64 8, ptr %6) #10
  call void @llvm.lifetime.end.p0(i64 8, ptr %5) #10
  call void @llvm.lifetime.end.p0(i64 8, ptr %4) #10
  call void @llvm.lifetime.end.p0(i64 8, ptr %3) #10
  ret i32 %42
}