; Function Attrs: nounwind uwtable
define internal fastcc range(i32 0, -2147483648) i32 @_parse_gpu_request(ptr noundef nonnull %0) unnamed_addr #0 {
  %2 = alloca ptr, align 8
  %3 = alloca ptr, align 8
  call void @llvm.lifetime.start.p0(i64 8, ptr nonnull %2) #17
  store ptr null, ptr %2, align 8
  call void @llvm.lifetime.start.p0(i64 8, ptr nonnull %3) #17
  %4 = tail call ptr @xstrdup(ptr noundef nonnull %0) #17
  store ptr %4, ptr %3, align 8
  %5 = call ptr @strtok_r(ptr noundef %4, ptr noundef nonnull @.str.45, ptr noundef nonnull %2) #17
  %.not15 = icmp eq ptr %5, null
  br i1 %.not15, label %._crit_edge, label %.lr.ph

.lr.ph:                                           ; preds = %1, %.lr.ph
  %.01117 = phi i32 [ %spec.select, %.lr.ph ], [ 0, %1 ]
  %.01216 = phi ptr [ %10, %.lr.ph ], [ %5, %1 ]
  %6 = call ptr @xstrchr(ptr noundef nonnull %.01216, i32 noundef 58) #17
  %.not14 = icmp eq ptr %6, null
  %7 = getelementptr inbounds nuw i8, ptr %6, i64 1
  %.01216.sink = select i1 %.not14, ptr %.01216, ptr %7
  %8 = call i64 @strtol(ptr noundef nonnull captures(none) %.01216.sink, ptr noundef null, i32 noundef 10) #17
  %.0 = trunc i64 %8 to i32
  %9 = call i32 @llvm.smax.i32(i32 %.0, i32 0)
  %spec.select = add nuw nsw i32 %9, %.01117
  %10 = call ptr @strtok_r(ptr noundef null, ptr noundef nonnull @.str.45, ptr noundef nonnull %2) #17
  %.not = icmp eq ptr %10, null
  br i1 %.not, label %._crit_edge, label %.lr.ph, !llvm.loop !27

._crit_edge:                                      ; preds = %.lr.ph, %1
  %.011.lcssa = phi i32 [ 0, %1 ], [ %spec.select, %.lr.ph ]
  call void @slurm_xfree(ptr noundef nonnull %3) #17
  call void @llvm.lifetime.end.p0(i64 8, ptr nonnull %3) #17
  call void @llvm.lifetime.end.p0(i64 8, ptr nonnull %2) #17
  ret i32 %.011.lcssa
}